target datalayout = "e-m:e-p270:32:32-p271:32:32-p272:64:64-i64:64-i128:128-f80:128-n8:16:32:64-S128"
target triple = "x86_64-pc-linux-gnu"

%struct.Test9 = type { i16, i16, i32 }

; Function Attrs: nounwind uwtable
define i64 @_testfunc_bitfield_by_reference3(ptr noundef %0, i64 noundef %1) #0 {
  %3 = alloca i64, align 8
  %4 = alloca ptr, align 8
  %5 = alloca i64, align 8
  %6 = alloca [10 x i64], align 16
  %7 = alloca i64, align 8
  %8 = alloca i32, align 4
  store ptr %0, ptr %4, align 8, !tbaa !7
  store i64 %1, ptr %5, align 8, !tbaa !35
  call void @llvm.lifetime.start.p0(i64 80, ptr %6) #12
  %9 = load ptr, ptr %4, align 8, !tbaa !7
  %10 = getelementptr inbounds nuw %struct.Test9, ptr %9, i32 0, i32 0
  %11 = load i16, ptr %10, align 4, !tbaa !41
  %12 = zext i16 %11 to i64
  store i64 %12, ptr %6, align 8, !tbaa !35
  %13 = getelementptr inbounds i64, ptr %6, i64 1
  %14 = load ptr, ptr %4, align 8, !tbaa !7
  %15 = getelementptr inbounds nuw %struct.Test9, ptr %14, i32 0, i32 1
  %16 = load i16, ptr %15, align 2
  %17 = and i16 %16, 511
  %18 = zext i16 %17 to i64
  store i64 %18, ptr %13, align 8, !tbaa !35
  %19 = getelementptr inbounds i64, ptr %6, i64 2
  %20 = load ptr, ptr %4, align 8, !tbaa !7
  %21 = getelementptr inbounds nuw %struct.Test9, ptr %20, i32 0, i32 1
  %22 = load i16, ptr %21, align 2
  %23 = lshr i16 %22, 9
  %24 = and i16 %23, 1
  %25 = zext i16 %24 to i64
  store i64 %25, ptr %19, align 8, !tbaa !35
  %26 = getelementptr inbounds i64, ptr %6, i64 3
  %27 = load ptr, ptr %4, align 8, !tbaa !7
  %28 = getelementptr inbounds nuw %struct.Test9, ptr %27, i32 0, i32 1
  %29 = load i16, ptr %28, align 2
  %30 = lshr i16 %29, 10
  %31 = and i16 %30, 1
  %32 = zext i16 %31 to i64
  store i64 %32, ptr %26, align 8, !tbaa !35
  %33 = getelementptr inbounds i64, ptr %6, i64 4
  %34 = load ptr, ptr %4, align 8, !tbaa !7
  %35 = getelementptr inbounds nuw %struct.Test9, ptr %34, i32 0, i32 1
  %36 = load i16, ptr %35, align 2
  %37 = lshr i16 %36, 11
  %38 = and i16 %37, 1
  %39 = zext i16 %38 to i64
  store i64 %39, ptr %33, align 8, !tbaa !35
  %40 = getelementptr inbounds i64, ptr %6, i64 5
  %41 = load ptr, ptr %4, align 8, !tbaa !7
  %42 = getelementptr inbounds nuw %struct.Test9, ptr %41, i32 0, i32 1
  %43 = load i16, ptr %42, align 2
  %44 = lshr i16 %43, 12
  %45 = and i16 %44, 1
  %46 = zext i16 %45 to i64
  store i64 %46, ptr %40, align 8, !tbaa !35
  %47 = getelementptr inbounds i64, ptr %6, i64 6
  %48 = load ptr, ptr %4, align 8, !tbaa !7
  %49 = getelementptr inbounds nuw %struct.Test9, ptr %48, i32 0, i32 1
  %50 = load i16, ptr %49, align 2
  %51 = lshr i16 %50, 13
  %52 = zext i16 %51 to i64
  store i64 %52, ptr %47, align 8, !tbaa !35
  %53 = getelementptr inbounds i64, ptr %6, i64 7
  %54 = load ptr, ptr %4, align 8, !tbaa !7
  %55 = getelementptr inbounds nuw %struct.Test9, ptr %54, i32 0, i32 2
  %56 = load i32, ptr %55, align 4
  %57 = and i32 %56, 1023
  %58 = zext i32 %57 to i64
  store i64 %58, ptr %53, align 8, !tbaa !35
  %59 = getelementptr inbounds i64, ptr %6, i64 8
  %60 = load ptr, ptr %4, align 8, !tbaa !7
  %61 = getelementptr inbounds nuw %struct.Test9, ptr %60, i32 0, i32 2
  %62 = load i32, ptr %61, align 4
  %63 = lshr i32 %62, 10
  %64 = and i32 %63, 1048575
  %65 = zext i32 %64 to i64
  store i64 %65, ptr %59, align 8, !tbaa !35
  %66 = getelementptr inbounds i64, ptr %6, i64 9
  %67 = load ptr, ptr %4, align 8, !tbaa !7
  %68 = getelementptr inbounds nuw %struct.Test9, ptr %67, i32 0, i32 2
  %69 = load i32, ptr %68, align 4
  %70 = lshr i32 %69, 30
  %71 = zext i32 %70 to i64
  store i64 %71, ptr %66, align 8, !tbaa !35
  call void @llvm.lifetime.start.p0(i64 8, ptr %7) #12
  store i64 10, ptr %7, align 8, !tbaa !35
  %72 = load i64, ptr %5, align 8, !tbaa !35
  %73 = icmp slt i64 %72, 0
  br i1 %73, label %74, label %75

74:                                               ; preds = %2
  store i64 -1, ptr %3, align 8
  store i32 1, ptr %8, align 4
  br label %84

75:                                               ; preds = %2
  %76 = load i64, ptr %5, align 8, !tbaa !35
  %77 = load i64, ptr %7, align 8, !tbaa !35
  %78 = icmp sge i64 %76, %77
  br i1 %78, label %79, label %80

79:                                               ; preds = %75
  store i64 -1, ptr %3, align 8
  store i32 1, ptr %8, align 4
  br label %84

80:                                               ; preds = %75
  %81 = load i64, ptr %5, align 8, !tbaa !35
  %82 = getelementptr [10 x i64], ptr %6, i64 0, i64 %81
  %83 = load i64, ptr %82, align 8, !tbaa !35
  store i64 %83, ptr %3, align 8
  store i32 1, ptr %8, align 4
  br label %84

84:                                               ; preds = %80, %79, %74
  call void @llvm.lifetime.end.p0(i64 8, ptr %7) #12
  call void @llvm.lifetime.end.p0(i64 80, ptr %6) #12
  %85 = load i64, ptr %3, align 8
  ret i64 %85
}