; Function Attrs: mustprogress nofree norecurse nosync nounwind willreturn memory(argmem: read) uwtable
define i64 @_testfunc_bitfield_by_reference3(ptr noundef readonly captures(none) %0, i64 noundef %1) local_unnamed_addr #11 {
  %3 = alloca [10 x i64], align 16
  call void @llvm.lifetime.start.p0(i64 80, ptr nonnull %3) #34
  %4 = load i16, ptr %0, align 4, !tbaa !36
  %5 = zext i16 %4 to i64
  store i64 %5, ptr %3, align 16, !tbaa !39
  %6 = getelementptr inbounds nuw i8, ptr %3, i64 8
  %7 = getelementptr inbounds nuw i8, ptr %0, i64 2
  %8 = load i16, ptr %7, align 2
  %9 = and i16 %8, 511
  %10 = zext nneg i16 %9 to i64
  store i64 %10, ptr %6, align 8, !tbaa !39
  %11 = getelementptr inbounds nuw i8, ptr %3, i64 16
  %12 = lshr i16 %8, 9
  %13 = and i16 %12, 1
  %14 = zext nneg i16 %13 to i64
  store i64 %14, ptr %11, align 16, !tbaa !39
  %15 = getelementptr inbounds nuw i8, ptr %3, i64 24
  %16 = lshr i16 %8, 10
  %17 = and i16 %16, 1
  %18 = zext nneg i16 %17 to i64
  store i64 %18, ptr %15, align 8, !tbaa !39
  %19 = getelementptr inbounds nuw i8, ptr %3, i64 32
  %20 = lshr i16 %8, 11
  %21 = and i16 %20, 1
  %22 = zext nneg i16 %21 to i64
  store i64 %22, ptr %19, align 16, !tbaa !39
  %23 = getelementptr inbounds nuw i8, ptr %3, i64 40
  %24 = lshr i16 %8, 12
  %25 = and i16 %24, 1
  %26 = zext nneg i16 %25 to i64
  store i64 %26, ptr %23, align 8, !tbaa !39
  %27 = getelementptr inbounds nuw i8, ptr %3, i64 48
  %28 = lshr i16 %8, 13
  %29 = zext nneg i16 %28 to i64
  store i64 %29, ptr %27, align 16, !tbaa !39
  %30 = getelementptr inbounds nuw i8, ptr %3, i64 56
  %31 = getelementptr inbounds nuw i8, ptr %0, i64 4
  %32 = load i32, ptr %31, align 4
  %33 = and i32 %32, 1023
  %34 = zext nneg i32 %33 to i64
  store i64 %34, ptr %30, align 8, !tbaa !39
  %35 = getelementptr inbounds nuw i8, ptr %3, i64 64
  %36 = lshr i32 %32, 10
  %37 = and i32 %36, 1048575
  %38 = zext nneg i32 %37 to i64
  store i64 %38, ptr %35, align 16, !tbaa !39
  %39 = getelementptr inbounds nuw i8, ptr %3, i64 72
  %40 = lshr i32 %32, 30
  %41 = zext nneg i32 %40 to i64
  store i64 %41, ptr %39, align 8, !tbaa !39
  %or.cond = icmp ugt i64 %1, 9
  br i1 %or.cond, label %45, label %42

42:                                               ; preds = %2
  %43 = getelementptr [10 x i64], ptr %3, i64 0, i64 %1
  %44 = load i64, ptr %43, align 8, !tbaa !39
  br label %45

45:                                               ; preds = %2, %42
  %.0 = phi i64 [ %44, %42 ], [ -1, %2 ]
  call void @llvm.lifetime.end.p0(i64 80, ptr nonnull %3) #34
  ret i64 %.0
}